target datalayout = "e-m:e-p270:32:32-p271:32:32-p272:64:64-i64:64-i128:128-f80:128-n8:16:32:64-S128"
target triple = "x86_64-pc-linux-gnu"

%struct.If_Man_t_ = type { ptr, ptr, ptr, ptr, ptr, ptr, ptr, ptr, [5 x i32], i32, float, float, float, float, i32, float, i32, i32, [4 x ptr], ptr, i32, i32, i32, ptr, [3 x [32 x i32]], i32, i32, i32, ptr, ptr, ptr, ptr, ptr, ptr, ptr, i32, i32, i32, [16 x i32], i32, i32, i32, i32, ptr, ptr, ptr, ptr, ptr, i32, i32, [32 x i32], [32 x i32], i32, i32, i32, i32, ptr, [16 x ptr], [16 x ptr], [16 x ptr], [16 x ptr], [16 x ptr], [16 x ptr], [16 x ptr], ptr, ptr, ptr, ptr, [32 x i8], i32, i32, i32, [6 x i64], [2 x i32], [2 x i32], ptr, [15 x i32], ptr, ptr, ptr, [16 x i32], ptr, ptr, ptr, ptr, [2 x i32], [2 x i32], [2 x ptr], ptr }
%struct.If_Cut_t_ = type <{ float, float, float, float, i32, i32, i32, i48, [0 x i32] }>
%struct.Vec_Mem_t_ = type { i32, i32, i32, i32, i32, i32, ptr, ptr, ptr }

@s_pDd = internal global ptr null, align 8
@s_pReo = internal global ptr null, align 8

; Function Attrs: nounwind uwtable
define internal i32 @Abc_LitIsCompl(i32 noundef %0) #0 {
  %2 = alloca i32, align 4
  store i32 %0, ptr %2, align 4
  %3 = load i32, ptr %2, align 4
  %4 = and i32 %3, 1
  ret i32 %4
}

; Function Attrs: nounwind uwtable
define internal ptr @Vec_MemReadEntry(ptr noundef %0, i32 noundef %1) #0 {
  %3 = alloca ptr, align 8
  %4 = alloca i32, align 4
  store ptr %0, ptr %3, align 8
  store i32 %1, ptr %4, align 4
  %5 = load ptr, ptr %3, align 8
  %6 = getelementptr inbounds %struct.Vec_Mem_t_, ptr %5, i32 0, i32 6
  %7 = load ptr, ptr %6, align 8
  %8 = load i32, ptr %4, align 4
  %9 = load ptr, ptr %3, align 8
  %10 = getelementptr inbounds %struct.Vec_Mem_t_, ptr %9, i32 0, i32 2
  %11 = load i32, ptr %10, align 8
  %12 = ashr i32 %8, %11
  %13 = sext i32 %12 to i64
  %14 = getelementptr inbounds ptr, ptr %7, i64 %13
  %15 = load ptr, ptr %14, align 8
  %16 = load ptr, ptr %3, align 8
  %17 = getelementptr inbounds %struct.Vec_Mem_t_, ptr %16, i32 0, i32 0
  %18 = load i32, ptr %17, align 8
  %19 = load i32, ptr %4, align 4
  %20 = load ptr, ptr %3, align 8
  %21 = getelementptr inbounds %struct.Vec_Mem_t_, ptr %20, i32 0, i32 3
  %22 = load i32, ptr %21, align 4
  %23 = and i32 %19, %22
  %24 = mul nsw i32 %18, %23
  %25 = sext i32 %24 to i64
  %26 = getelementptr inbounds i64, ptr %15, i64 %25
  ret ptr %26
}

; Function Attrs: nounwind uwtable
define internal i32 @Abc_Lit2Var(i32 noundef %0) #0 {
  %2 = alloca i32, align 4
  store i32 %0, ptr %2, align 4
  %3 = load i32, ptr %2, align 4
  %4 = ashr i32 %3, 1
  ret i32 %4
}

; Function Attrs: nounwind uwtable
define internal void @Abc_TtCopy(ptr noundef %0, ptr noundef %1, i32 noundef %2, i32 noundef %3) #0 {
  %5 = alloca ptr, align 8
  %6 = alloca ptr, align 8
  %7 = alloca i32, align 4
  %8 = alloca i32, align 4
  %9 = alloca i32, align 4
  store ptr %0, ptr %5, align 8
  store ptr %1, ptr %6, align 8
  store i32 %2, ptr %7, align 4
  store i32 %3, ptr %8, align 4
  %10 = load i32, ptr %8, align 4
  %11 = icmp ne i32 %10, 0
  br i1 %11, label %12, label %32

12:                                               ; preds = %4
  store i32 0, ptr %9, align 4
  br label %13

13:                                               ; preds = %28, %12
  %14 = load i32, ptr %9, align 4
  %15 = load i32, ptr %7, align 4
  %16 = icmp slt i32 %14, %15
  br i1 %16, label %17, label %31

17:                                               ; preds = %13
  %18 = load ptr, ptr %6, align 8
  %19 = load i32, ptr %9, align 4
  %20 = sext i32 %19 to i64
  %21 = getelementptr inbounds i64, ptr %18, i64 %20
  %22 = load i64, ptr %21, align 8
  %23 = xor i64 %22, -1
  %24 = load ptr, ptr %5, align 8
  %25 = load i32, ptr %9, align 4
  %26 = sext i32 %25 to i64
  %27 = getelementptr inbounds i64, ptr %24, i64 %26
  store i64 %23, ptr %27, align 8
  br label %28

28:                                               ; preds = %17
  %29 = load i32, ptr %9, align 4
  %30 = add nsw i32 %29, 1
  store i32 %30, ptr %9, align 4
  br label %13, !llvm.loop !12

31:                                               ; preds = %13
  br label %51

32:                                               ; preds = %4
  store i32 0, ptr %9, align 4
  br label %33

33:                                               ; preds = %47, %32
  %34 = load i32, ptr %9, align 4
  %35 = load i32, ptr %7, align 4
  %36 = icmp slt i32 %34, %35
  br i1 %36, label %37, label %50

37:                                               ; preds = %33
  %38 = load ptr, ptr %6, align 8
  %39 = load i32, ptr %9, align 4
  %40 = sext i32 %39 to i64
  %41 = getelementptr inbounds i64, ptr %38, i64 %40
  %42 = load i64, ptr %41, align 8
  %43 = load ptr, ptr %5, align 8
  %44 = load i32, ptr %9, align 4
  %45 = sext i32 %44 to i64
  %46 = getelementptr inbounds i64, ptr %43, i64 %45
  store i64 %42, ptr %46, align 8
  br label %47

47:                                               ; preds = %37
  %48 = load i32, ptr %9, align 4
  %49 = add nsw i32 %48, 1
  store i32 %49, ptr %9, align 4
  br label %33, !llvm.loop !13

50:                                               ; preds = %33
  br label %51

51:                                               ; preds = %50, %31
  ret void
}

; Function Attrs: nounwind uwtable
define internal i32 @If_CutTruthIsCompl(ptr noundef %0) #0 {
  %2 = alloca ptr, align 8
  store ptr %0, ptr %2, align 8
  %3 = load ptr, ptr %2, align 8
  %4 = getelementptr inbounds %struct.If_Cut_t_, ptr %3, i32 0, i32 4
  %5 = load i32, ptr %4, align 4
  %6 = call i32 @Abc_LitIsCompl(i32 noundef %5)
  ret i32 %6
}

; Function Attrs: nounwind uwtable
define internal ptr @If_CutTruthWR(ptr noundef %0, ptr noundef %1) #0 {
  %3 = alloca ptr, align 8
  %4 = alloca ptr, align 8
  store ptr %0, ptr %3, align 8
  store ptr %1, ptr %4, align 8
  %5 = load ptr, ptr %3, align 8
  %6 = getelementptr inbounds %struct.If_Man_t_, ptr %5, i32 0, i32 57
  %7 = load ptr, ptr %4, align 8
  %8 = getelementptr inbounds %struct.If_Cut_t_, ptr %7, i32 0, i32 7
  %9 = load i64, ptr %8, align 4
  %10 = lshr i64 %9, 24
  %11 = and i64 %10, 255
  %12 = trunc i64 %11 to i32
  %13 = zext i32 %12 to i64
  %14 = getelementptr inbounds [16 x ptr], ptr %6, i64 0, i64 %13
  %15 = load ptr, ptr %14, align 8
  %16 = icmp ne ptr %15, null
  br i1 %16, label %17, label %34

17:                                               ; preds = %2
  %18 = load ptr, ptr %3, align 8
  %19 = getelementptr inbounds %struct.If_Man_t_, ptr %18, i32 0, i32 57
  %20 = load ptr, ptr %4, align 8
  %21 = getelementptr inbounds %struct.If_Cut_t_, ptr %20, i32 0, i32 7
  %22 = load i64, ptr %21, align 4
  %23 = lshr i64 %22, 24
  %24 = and i64 %23, 255
  %25 = trunc i64 %24 to i32
  %26 = zext i32 %25 to i64
  %27 = getelementptr inbounds [16 x ptr], ptr %19, i64 0, i64 %26
  %28 = load ptr, ptr %27, align 8
  %29 = load ptr, ptr %4, align 8
  %30 = getelementptr inbounds %struct.If_Cut_t_, ptr %29, i32 0, i32 4
  %31 = load i32, ptr %30, align 4
  %32 = call i32 @Abc_Lit2Var(i32 noundef %31)
  %33 = call ptr @Vec_MemReadEntry(ptr noundef %28, i32 noundef %32)
  br label %35

34:                                               ; preds = %2
  br label %35

35:                                               ; preds = %34, %17
  %36 = phi ptr [ %33, %17 ], [ null, %34 ]
  ret ptr %36
}

; Function Attrs: nounwind uwtable
define internal ptr @If_CutTruthW(ptr noundef %0, ptr noundef %1) #0 {
  %3 = alloca ptr, align 8
  %4 = alloca ptr, align 8
  store ptr %0, ptr %3, align 8
  store ptr %1, ptr %4, align 8
  %5 = load ptr, ptr %3, align 8
  %6 = getelementptr inbounds %struct.If_Man_t_, ptr %5, i32 0, i32 19
  %7 = load ptr, ptr %6, align 8
  %8 = load ptr, ptr %3, align 8
  %9 = load ptr, ptr %4, align 8
  %10 = call ptr @If_CutTruthWR(ptr noundef %8, ptr noundef %9)
  %11 = load ptr, ptr %3, align 8
  %12 = getelementptr inbounds %struct.If_Man_t_, ptr %11, i32 0, i32 38
  %13 = load ptr, ptr %4, align 8
  %14 = getelementptr inbounds %struct.If_Cut_t_, ptr %13, i32 0, i32 7
  %15 = load i64, ptr %14, align 4
  %16 = lshr i64 %15, 24
  %17 = and i64 %16, 255
  %18 = trunc i64 %17 to i32
  %19 = zext i32 %18 to i64
  %20 = getelementptr inbounds [16 x i32], ptr %12, i64 0, i64 %19
  %21 = load i32, ptr %20, align 4
  %22 = load ptr, ptr %4, align 8
  %23 = call i32 @If_CutTruthIsCompl(ptr noundef %22)
  call void @Abc_TtCopy(ptr noundef %7, ptr noundef %10, i32 noundef %21, i32 noundef %23)
  %24 = load ptr, ptr %3, align 8
  %25 = getelementptr inbounds %struct.If_Man_t_, ptr %24, i32 0, i32 19
  %26 = load ptr, ptr %25, align 8
  ret ptr %26
}

; Function Attrs: nounwind uwtable
define internal ptr @If_CutTruth(ptr noundef %0, ptr noundef %1) #0 {
  %3 = alloca ptr, align 8
  %4 = alloca ptr, align 8
  store ptr %0, ptr %3, align 8
  store ptr %1, ptr %4, align 8
  %5 = load ptr, ptr %3, align 8
  %6 = load ptr, ptr %4, align 8
  %7 = call ptr @If_CutTruthW(ptr noundef %5, ptr noundef %6)
  ret ptr %7
}

; Function Attrs: nounwind uwtable
define internal i32 @If_CutLeaveNum(ptr noundef %0) #0 {
  %2 = alloca ptr, align 8
  store ptr %0, ptr %2, align 8
  %3 = load ptr, ptr %2, align 8
  %4 = getelementptr inbounds %struct.If_Cut_t_, ptr %3, i32 0, i32 7
  %5 = load i64, ptr %4, align 4
  %6 = lshr i64 %5, 24
  %7 = and i64 %6, 255
  %8 = trunc i64 %7 to i32
  ret i32 %8
}

; Function Attrs: nounwind uwtable
define internal ptr @If_CutPerm(ptr noundef %0) #0 {
  %2 = alloca ptr, align 8
  store ptr %0, ptr %2, align 8
  %3 = load ptr, ptr %2, align 8
  %4 = getelementptr inbounds %struct.If_Cut_t_, ptr %3, i32 0, i32 8
  %5 = getelementptr inbounds [0 x i32], ptr %4, i64 0, i64 0
  %6 = load ptr, ptr %2, align 8
  %7 = getelementptr inbounds %struct.If_Cut_t_, ptr %6, i32 0, i32 7
  %8 = load i64, ptr %7, align 4
  %9 = lshr i64 %8, 24
  %10 = and i64 %9, 255
  %11 = trunc i64 %10 to i32
  %12 = sext i32 %11 to i64
  %13 = getelementptr inbounds i32, ptr %5, i64 %12
  ret ptr %13
}

; Function Attrs: nounwind uwtable
define internal i32 @Abc_NtkRenodeEvalBdd(ptr noundef %0, ptr noundef %1) #0 {
  %3 = alloca ptr, align 8
  %4 = alloca ptr, align 8
  %5 = alloca ptr, align 8
  %6 = alloca [32 x i32], align 16
  %7 = alloca ptr, align 8
  %8 = alloca ptr, align 8
  %9 = alloca i32, align 4
  %10 = alloca i32, align 4
  %11 = alloca i32, align 4
  store ptr %0, ptr %3, align 8
  store ptr %1, ptr %4, align 8
  %12 = load ptr, ptr %4, align 8
  %13 = call ptr @If_CutPerm(ptr noundef %12)
  store ptr %13, ptr %5, align 8
  store i32 0, ptr %9, align 4
  br label %14

14:                                               ; preds = %27, %2
  %15 = load i32, ptr %9, align 4
  %16 = load ptr, ptr %4, align 8
  %17 = call i32 @If_CutLeaveNum(ptr noundef %16)
  %18 = icmp slt i32 %15, %17
  br i1 %18, label %19, label %30

19:                                               ; preds = %14
  %20 = load i32, ptr %9, align 4
  %21 = sext i32 %20 to i64
  %22 = getelementptr inbounds [32 x i32], ptr %6, i64 0, i64 %21
  store i32 -100, ptr %22, align 4
  %23 = load ptr, ptr %5, align 8
  %24 = load i32, ptr %9, align 4
  %25 = sext i32 %24 to i64
  %26 = getelementptr inbounds i8, ptr %23, i64 %25
  store i8 -100, ptr %26, align 1
  br label %27

27:                                               ; preds = %19
  %28 = load i32, ptr %9, align 4
  %29 = add nsw i32 %28, 1
  store i32 %29, ptr %9, align 4
  br label %14, !llvm.loop !4

30:                                               ; preds = %14
  %31 = load ptr, ptr @s_pDd, align 8
  %32 = load ptr, ptr %3, align 8
  %33 = load ptr, ptr %4, align 8
  %34 = call ptr @If_CutTruth(ptr noundef %32, ptr noundef %33)
  %35 = load ptr, ptr %4, align 8
  %36 = call i32 @If_CutLeaveNum(ptr noundef %35)
  %37 = call ptr @Kit_TruthToBdd(ptr noundef %31, ptr noundef %34, i32 noundef %36, i32 noundef 0)
  store ptr %37, ptr %7, align 8
  %38 = load ptr, ptr %7, align 8
  call void @Cudd_Ref(ptr noundef %38)
  %39 = load ptr, ptr @s_pReo, align 8
  %40 = load ptr, ptr @s_pDd, align 8
  %41 = load ptr, ptr %7, align 8
  %42 = getelementptr inbounds [32 x i32], ptr %6, i64 0, i64 0
  %43 = call ptr @Extra_Reorder(ptr noundef %39, ptr noundef %40, ptr noundef %41, ptr noundef %42)
  store ptr %43, ptr %8, align 8
  %44 = load ptr, ptr %8, align 8
  call void @Cudd_Ref(ptr noundef %44)
  store i32 0, ptr %10, align 4
  store i32 0, ptr %9, align 4
  br label %45

45:                                               ; preds = %68, %30
  %46 = load i32, ptr %9, align 4
  %47 = load ptr, ptr %4, align 8
  %48 = call i32 @If_CutLeaveNum(ptr noundef %47)
  %49 = icmp slt i32 %46, %48
  br i1 %49, label %50, label %71

50:                                               ; preds = %45
  %51 = load i32, ptr %9, align 4
  %52 = sext i32 %51 to i64
  %53 = getelementptr inbounds [32 x i32], ptr %6, i64 0, i64 %52
  %54 = load i32, ptr %53, align 4
  %55 = icmp sge i32 %54, 0
  br i1 %55, label %56, label %67

56:                                               ; preds = %50
  %57 = load i32, ptr %10, align 4
  %58 = add nsw i32 %57, 1
  store i32 %58, ptr %10, align 4
  %59 = trunc i32 %58 to i8
  %60 = load ptr, ptr %5, align 8
  %61 = load i32, ptr %9, align 4
  %62 = sext i32 %61 to i64
  %63 = getelementptr inbounds [32 x i32], ptr %6, i64 0, i64 %62
  %64 = load i32, ptr %63, align 4
  %65 = sext i32 %64 to i64
  %66 = getelementptr inbounds i8, ptr %60, i64 %65
  store i8 %59, ptr %66, align 1
  br label %67

67:                                               ; preds = %56, %50
  br label %68

68:                                               ; preds = %67
  %69 = load i32, ptr %9, align 4
  %70 = add nsw i32 %69, 1
  store i32 %70, ptr %9, align 4
  br label %45, !llvm.loop !6

71:                                               ; preds = %45
  %72 = load ptr, ptr %8, align 8
  %73 = call i32 @Cudd_DagSize(ptr noundef %72)
  %74 = add nsw i32 -1, %73
  store i32 %74, ptr %11, align 4
  %75 = load ptr, ptr @s_pDd, align 8
  %76 = load ptr, ptr %8, align 8
  call void @Cudd_RecursiveDeref(ptr noundef %75, ptr noundef %76)
  %77 = load ptr, ptr @s_pDd, align 8
  %78 = load ptr, ptr %7, align 8
  call void @Cudd_RecursiveDeref(ptr noundef %77, ptr noundef %78)
  %79 = load i32, ptr %11, align 4
  ret i32 %79
}