; Function Attrs: nounwind uwtable
define internal range(i32 -2147483648, 2147483647) i32 @Abc_NtkRenodeEvalBdd(ptr noundef readonly captures(none) %0, ptr noundef captures(none) %1) #0 {
  %3 = alloca [32 x i32], align 16
  %4 = getelementptr i8, ptr %1, i64 36
  %5 = getelementptr inbounds nuw i8, ptr %1, i64 28
  %6 = load i64, ptr %5, align 4
  %7 = lshr i64 %6, 24
  %8 = and i64 %7, 255
  %9 = getelementptr i32, ptr %4, i64 %8
  %10 = and i64 %6, 4278190080
  %.not = icmp eq i64 %10, 0
  br i1 %.not, label %._crit_edge, label %.lr.ph.preheader

.lr.ph.preheader:                                 ; preds = %2
  %11 = lshr i64 %6, 24
  %12 = lshr i64 %6, 24
  %13 = and i64 %12, 255
  %umax = tail call i64 @llvm.umax.i64(i64 %13, i64 1)
  tail call void @llvm.memset.p0.i64(ptr noundef nonnull align 1 dereferenceable(1) %9, i8 -100, i64 %umax, i1 false)
  %wide.trip.count = and i64 %11, 255
  br label %.lr.ph

.lr.ph:                                           ; preds = %.lr.ph.preheader, %.lr.ph
  %indvars.iv = phi i64 [ 0, %.lr.ph.preheader ], [ %indvars.iv.next, %.lr.ph ]
  %14 = getelementptr inbounds nuw [32 x i32], ptr %3, i64 0, i64 %indvars.iv
  store i32 -100, ptr %14, align 4
  %indvars.iv.next = add nuw nsw i64 %indvars.iv, 1
  %exitcond.not = icmp eq i64 %indvars.iv.next, %wide.trip.count
  br i1 %exitcond.not, label %._crit_edge, label %.lr.ph, !llvm.loop !4

._crit_edge:                                      ; preds = %.lr.ph, %2
  %15 = load ptr, ptr @s_pDd, align 8
  %16 = getelementptr i8, ptr %1, i64 16
  %.val = load i32, ptr %16, align 4
  %17 = getelementptr inbounds nuw i8, ptr %0, i64 152
  %18 = load ptr, ptr %17, align 8
  %19 = getelementptr inbounds nuw i8, ptr %0, i64 1064
  %20 = getelementptr inbounds nuw [16 x ptr], ptr %19, i64 0, i64 %8
  %21 = load ptr, ptr %20, align 8
  %.not.i.i.i = icmp eq ptr %21, null
  br i1 %.not.i.i.i, label %If_CutTruthWR.exit.i.i, label %22

22:                                               ; preds = %._crit_edge
  %23 = ashr i32 %.val, 1
  %24 = getelementptr inbounds nuw i8, ptr %21, i64 24
  %25 = load ptr, ptr %24, align 8
  %26 = getelementptr inbounds nuw i8, ptr %21, i64 8
  %27 = load i32, ptr %26, align 8
  %28 = ashr i32 %23, %27
  %29 = sext i32 %28 to i64
  %30 = getelementptr inbounds ptr, ptr %25, i64 %29
  %31 = load ptr, ptr %30, align 8
  %32 = load i32, ptr %21, align 8
  %33 = getelementptr inbounds nuw i8, ptr %21, i64 12
  %34 = load i32, ptr %33, align 4
  %35 = and i32 %34, %23
  %36 = mul nsw i32 %35, %32
  %37 = sext i32 %36 to i64
  %38 = getelementptr inbounds i64, ptr %31, i64 %37
  br label %If_CutTruthWR.exit.i.i

If_CutTruthWR.exit.i.i:                           ; preds = %22, %._crit_edge
  %39 = phi ptr [ %38, %22 ], [ null, %._crit_edge ]
  %40 = getelementptr inbounds nuw i8, ptr %0, i64 652
  %41 = getelementptr inbounds nuw [16 x i32], ptr %40, i64 0, i64 %8
  %42 = load i32, ptr %41, align 4
  %43 = and i32 %.val, 1
  %.not.i7.i.i = icmp eq i32 %43, 0
  %44 = icmp sgt i32 %42, 0
  br i1 %.not.i7.i.i, label %.preheader.i.i.i, label %.preheader14.i.i.i

.preheader14.i.i.i:                               ; preds = %If_CutTruthWR.exit.i.i
  br i1 %44, label %.lr.ph.preheader.i.i.i, label %If_CutTruth.exit

.lr.ph.preheader.i.i.i:                           ; preds = %.preheader14.i.i.i
  %wide.trip.count.i.i.i = zext nneg i32 %42 to i64
  br label %.lr.ph.i.i.i

.preheader.i.i.i:                                 ; preds = %If_CutTruthWR.exit.i.i
  br i1 %44, label %.lr.ph18.preheader.i.i.i, label %If_CutTruth.exit

.lr.ph18.preheader.i.i.i:                         ; preds = %.preheader.i.i.i
  %wide.trip.count24.i.i.i = zext nneg i32 %42 to i64
  br label %.lr.ph18.i.i.i

.lr.ph.i.i.i:                                     ; preds = %.lr.ph.i.i.i, %.lr.ph.preheader.i.i.i
  %indvars.iv.i.i.i = phi i64 [ 0, %.lr.ph.preheader.i.i.i ], [ %indvars.iv.next.i.i.i, %.lr.ph.i.i.i ]
  %45 = getelementptr inbounds nuw i64, ptr %39, i64 %indvars.iv.i.i.i
  %46 = load i64, ptr %45, align 8
  %47 = xor i64 %46, -1
  %48 = getelementptr inbounds nuw i64, ptr %18, i64 %indvars.iv.i.i.i
  store i64 %47, ptr %48, align 8
  %indvars.iv.next.i.i.i = add nuw nsw i64 %indvars.iv.i.i.i, 1
  %exitcond.not.i.i.i = icmp eq i64 %indvars.iv.next.i.i.i, %wide.trip.count.i.i.i
  br i1 %exitcond.not.i.i.i, label %If_CutTruth.exit, label %.lr.ph.i.i.i, !llvm.loop !6

.lr.ph18.i.i.i:                                   ; preds = %.lr.ph18.i.i.i, %.lr.ph18.preheader.i.i.i
  %indvars.iv21.i.i.i = phi i64 [ 0, %.lr.ph18.preheader.i.i.i ], [ %indvars.iv.next22.i.i.i, %.lr.ph18.i.i.i ]
  %49 = getelementptr inbounds nuw i64, ptr %39, i64 %indvars.iv21.i.i.i
  %50 = load i64, ptr %49, align 8
  %51 = getelementptr inbounds nuw i64, ptr %18, i64 %indvars.iv21.i.i.i
  store i64 %50, ptr %51, align 8
  %indvars.iv.next22.i.i.i = add nuw nsw i64 %indvars.iv21.i.i.i, 1
  %exitcond25.not.i.i.i = icmp eq i64 %indvars.iv.next22.i.i.i, %wide.trip.count24.i.i.i
  br i1 %exitcond25.not.i.i.i, label %If_CutTruth.exit, label %.lr.ph18.i.i.i, !llvm.loop !7

If_CutTruth.exit:                                 ; preds = %.lr.ph.i.i.i, %.lr.ph18.i.i.i, %.preheader14.i.i.i, %.preheader.i.i.i
  %52 = load ptr, ptr %17, align 8
  %.val28 = load i64, ptr %5, align 4
  %53 = trunc i64 %.val28 to i32
  %54 = lshr i32 %53, 24
  %55 = tail call ptr @Kit_TruthToBdd(ptr noundef %15, ptr noundef %52, i32 noundef %54, i32 noundef 0) #7
  tail call void @Cudd_Ref(ptr noundef %55) #7
  %56 = load ptr, ptr @s_pReo, align 8
  %57 = load ptr, ptr @s_pDd, align 8
  %58 = call ptr @Extra_Reorder(ptr noundef %56, ptr noundef %57, ptr noundef %55, ptr noundef nonnull %3) #7
  call void @Cudd_Ref(ptr noundef %58) #7
  %.val29 = load i64, ptr %5, align 4
  %59 = and i64 %.val29, 4278190080
  %.not36 = icmp eq i64 %59, 0
  br i1 %.not36, label %._crit_edge35, label %.lr.ph34.preheader

.lr.ph34.preheader:                               ; preds = %If_CutTruth.exit
  %60 = lshr i64 %.val29, 24
  %wide.trip.count43 = and i64 %60, 255
  br label %.lr.ph34

.lr.ph34:                                         ; preds = %.lr.ph34.preheader, %68
  %indvars.iv40 = phi i64 [ 0, %.lr.ph34.preheader ], [ %indvars.iv.next41, %68 ]
  %.02332 = phi i8 [ 0, %.lr.ph34.preheader ], [ %.124, %68 ]
  %61 = getelementptr inbounds nuw [32 x i32], ptr %3, i64 0, i64 %indvars.iv40
  %62 = load i32, ptr %61, align 4
  %63 = icmp sgt i32 %62, -1
  br i1 %63, label %64, label %68

64:                                               ; preds = %.lr.ph34
  %65 = add i8 %.02332, 1
  %66 = zext nneg i32 %62 to i64
  %67 = getelementptr inbounds nuw i8, ptr %9, i64 %66
  store i8 %65, ptr %67, align 1
  br label %68

68:                                               ; preds = %.lr.ph34, %64
  %.124 = phi i8 [ %65, %64 ], [ %.02332, %.lr.ph34 ]
  %indvars.iv.next41 = add nuw nsw i64 %indvars.iv40, 1
  %exitcond44.not = icmp eq i64 %indvars.iv.next41, %wide.trip.count43
  br i1 %exitcond44.not, label %._crit_edge35, label %.lr.ph34, !llvm.loop !8

._crit_edge35:                                    ; preds = %68, %If_CutTruth.exit
  %69 = call i32 @Cudd_DagSize(ptr noundef %58) #7
  %70 = add nsw i32 %69, -1
  %71 = load ptr, ptr @s_pDd, align 8
  call void @Cudd_RecursiveDeref(ptr noundef %71, ptr noundef %58) #7
  %72 = load ptr, ptr @s_pDd, align 8
  call void @Cudd_RecursiveDeref(ptr noundef %72, ptr noundef %55) #7
  ret i32 %70
}